Certificate:
    Data:
        Version: 3 (0x2)
        Serial Number:
            25:06:c5:d0:c3:41:74:d3:04:85:b0:62:db:24:78:6b:56:36:36:b2
        Signature Algorithm: sha256WithRSAEncryption
        Issuer: C=US, ST=California, O=Synadia, OU=nats.io, CN=Certificate Authority 2025-08-20
        Validity
            Not Before: Aug 20 18:42:01 2025 GMT
            Not After : Aug 18 18:42:01 2035 GMT
        Subject: C=US, ST=California, O=Synadia, OU=nats.io, CN=localhost
        Subject Public Key Info:
            Public Key Algorithm: rsaEncryption
                Public-Key: (2048 bit)
                Modulus:
                    00:cf:e9:75:d4:83:e2:c6:24:06:b2:98:dd:da:ea:
                    8f:84:e5:57:46:51:97:80:9e:cb:42:39:f7:3a:28:
                    3a:8f:e8:16:bd:ec:77:f8:28:dd:0a:62:17:7f:66:
                    a1:76:89:8b:f4:b1:35:b8:7a:c3:d8:9d:a0:32:38:
                    f4:bc:be:ad:66:95:b1:7b:af:f4:5b:b4:51:9f:79:
                    c6:0e:9f:dd:56:1a:a2:5d:d8:35:d2:81:64:d1:ef:
                    20:19:90:e2:a5:13:be:a9:a8:5e:41:75:88:eb:dc:
                    50:8b:36:f8:05:8c:89:62:2b:24:37:98:49:c6:4c:
                    e3:fc:e4:1b:92:37:67:fb:12:47:fd:29:4b:08:5c:
                    11:e2:aa:23:c2:9b:e4:c2:fa:f1:4f:12:73:8b:7b:
                    0a:64:53:19:aa:a0:35:67:ab:b7:4e:f8:fb:3c:07:
                    ba:62:e4:d2:67:b1:17:e1:9b:e4:95:5d:3e:5e:55:
                    b3:af:94:9e:f3:2d:e8:85:ba:1f:d2:25:c6:4c:e0:
                    9d:e4:17:87:7f:a8:35:26:47:1e:14:12:dd:19:9f:
                    b1:17:79:97:8a:a1:c4:18:b7:7e:5a:4c:96:fb:36:
                    70:d1:81:5a:dc:72:e1:f3:83:6c:5e:a8:18:d6:d0:
                    86:43:bf:f4:e9:ef:a7:78:a1:78:56:47:8e:b7:32:
                    74:5b
                Exponent: 65537 (0x10001)
        X509v3 extensions:
            X509v3 Basic Constraints: 
                CA:FALSE
            Netscape Comment: 
                nats.io nats-server test-suite certificate
            X509v3 Subject Key Identifier: 
                F2:EE:0B:2B:52:66:45:42:BD:09:33:CA:33:53:41:03:09:40:35:62
            X509v3 Authority Key Identifier: 
                keyid:B0:0C:09:95:EA:15:3F:23:8E:EA:BC:4C:80:F6:12:39:3A:56:7B:28
                DirName:/C=US/ST=California/O=Synadia/OU=nats.io/CN=Certificate Authority 2025-08-20
                serial:36:AB:D8:B1:2D:CD:91:24:02:FC:59:ED:15:C5:0B:E6:B0:5F:12:CF
            X509v3 Subject Alternative Name: 
                DNS:localhost, IP Address:127.0.0.1, IP Address:0:0:0:0:0:0:0:1, email:ivan@nats.io
            Netscape Cert Type: 
                SSL Client
            X509v3 Key Usage: 
                Digital Signature, Key Encipherment
            X509v3 Extended Key Usage: 
                TLS Web Client Authentication
    Signature Algorithm: sha256WithRSAEncryption
    Signature Value:
        10:4b:23:c2:8f:34:33:09:b6:0f:65:2d:45:e1:06:eb:65:85:
        e2:ff:b2:51:07:40:cb:2d:80:46:09:fc:5c:de:d3:0f:1e:2b:
        5f:b0:95:3e:d0:cf:37:d6:53:ce:64:3f:3c:06:81:24:af:44:
        b2:6c:8a:c9:53:08:d7:8a:23:4a:03:7e:56:07:42:1b:57:8b:
        19:20:8a:e4:2a:53:39:e6:db:39:9f:47:e5:dd:fc:29:65:4c:
        19:0e:79:0b:8c:d2:99:f5:31:14:67:72:1a:14:0f:8c:2c:c7:
        7a:b8:e1:c1:5d:32:e8:84:34:0c:2e:7b:a8:0f:38:79:c3:18:
        2c:47:7f:9f:db:7a:12:7b:ae:e5:70:aa:8b:90:17:e4:c6:ba:
        84:ab:93:ec:9e:28:1f:00:3a:8d:d1:ed:83:37:2f:e8:66:1f:
        c0:ba:9f:35:d3:81:3e:fd:86:6e:65:b7:6d:76:b5:51:d2:09:
        8a:5f:fb:23:61:c3:74:3b:5e:4b:48:73:aa:06:78:62:77:4c:
        61:23:2b:a2:64:74:6c:f0:3f:7c:ae:b9:5b:27:5f:58:40:8f:
        8a:73:5f:bf:2a:02:71:7c:14:23:9a:b3:4b:74:06:fd:f8:46:
        b7:55:7c:87:b2:e3:d6:da:0e:9a:ec:87:0b:34:64:ec:ab:ff:
        2d:92:44:86
-----BEGIN CERTIFICATE-----
MIIE5jCCA86gAwIBAgIUJQbF0MNBdNMEhbBi2yR4a1Y2NrIwDQYJKoZIhvcNAQEL
BQAwcTELMAkGA1UEBhMCVVMxEzARBgNVBAgMCkNhbGlmb3JuaWExEDAOBgNVBAoM
B1N5bmFkaWExEDAOBgNVBAsMB25hdHMuaW8xKTAnBgNVBAMMIENlcnRpZmljYXRl
IEF1dGhvcml0eSAyMDI1LTA4LTIwMB4XDTI1MDgyMDE4NDIwMVoXDTM1MDgxODE4
NDIwMVowWjELMAkGA1UEBhMCVVMxEzARBgNVBAgMCkNhbGlmb3JuaWExEDAOBgNV
BAoMB1N5bmFkaWExEDAOBgNVBAsMB25hdHMuaW8xEjAQBgNVBAMMCWxvY2FsaG9z
dDCCASIwDQYJKoZIhvcNAQEBBQADggEPADCCAQoCggEBAM/pddSD4sYkBrKY3drq
j4TlV0ZRl4Cey0I59zooOo/oFr3sd/go3QpiF39moXaJi/SxNbh6w9idoDI49Ly+
rWaVsXuv9Fu0UZ95xg6f3VYaol3YNdKBZNHvIBmQ4qUTvqmoXkF1iOvcUIs2+AWM
iWIrJDeYScZM4/zkG5I3Z/sSR/0pSwhcEeKqI8Kb5ML68U8Sc4t7CmRTGaqgNWer
t074+zwHumLk0mexF+Gb5JVdPl5Vs6+UnvMt6IW6H9IlxkzgneQXh3+oNSZHHhQS
3RmfsRd5l4qhxBi3flpMlvs2cNGBWtxy4fODbF6oGNbQhkO/9Onvp3iheFZHjrcy
dFsCAwEAAaOCAYswggGHMAkGA1UdEwQCMAAwOQYJYIZIAYb4QgENBCwWKm5hdHMu
aW8gbmF0cy1zZXJ2ZXIgdGVzdC1zdWl0ZSBjZXJ0aWZpY2F0ZTAdBgNVHQ4EFgQU
8u4LK1JmRUK9CTPKM1NBAwlANWIwga4GA1UdIwSBpjCBo4AUsAwJleoVPyOO6rxM
gPYSOTpWeyihdaRzMHExCzAJBgNVBAYTAlVTMRMwEQYDVQQIDApDYWxpZm9ybmlh
MRAwDgYDVQQKDAdTeW5hZGlhMRAwDgYDVQQLDAduYXRzLmlvMSkwJwYDVQQDDCBD
ZXJ0aWZpY2F0ZSBBdXRob3JpdHkgMjAyNS0wOC0yMIIUNqvYsS3NkSQC/FntFcUL
5rBfEs8wOgYDVR0RBDMwMYIJbG9jYWxob3N0hwR/AAABhxAAAAAAAAAAAAAAAAAA
AAABgQxpdmFuQG5hdHMuaW8wEQYJYIZIAYb4QgEBBAQDAgeAMAsGA1UdDwQEAwIF
oDATBgNVHSUEDDAKBggrBgEFBQcDAjANBgkqhkiG9w0BAQsFAAOCAQEAEEsjwo80
Mwm2D2UtReEG62WF4v+yUQdAyy2ARgn8XN7TDx4rX7CVPtDPN9ZTzmQ/PAaBJK9E
smyKyVMI14ojSgN+VgdCG1eLGSCK5CpTOebbOZ9H5d38KWVMGQ55C4zSmfUxFGdy
GhQPjCzHerjhwV0y6IQ0DC57qA84ecMYLEd/n9t6Enuu5XCqi5AX5Ma6hKuT7J4o
HwA6jdHtgzcv6GYfwLqfNdOBPv2GbmW3bXa1UdIJil/7I2HDdDteS0hzqgZ4YndM
YSMromR0bPA/fK65WydfWECPinNfvyoCcXwUI5qzS3QG/fhGt1V8h7Lj1toOmuyH
CzRk7Kv/LZJEhg==
-----END CERTIFICATE-----
