Certificate:
    Data:
        Version: 3 (0x2)
        Serial Number:
            67:89:cf:80:a0:f2:68:05:1d:c8:9e:c1:f6:4b:d6:1a:0b:78:c1:aa
        Signature Algorithm: sha256WithRSAEncryption
        Issuer: C=US, ST=California, O=Synadia, OU=nats.io, CN=Certificate Authority 2025-08-20
        Validity
            Not Before: Aug 20 18:42:01 2025 GMT
            Not After : Aug 18 18:42:01 2035 GMT
        Subject: C=US, ST=California, O=Synadia, OU=nats.io, CN=localhost
        Subject Public Key Info:
            Public Key Algorithm: rsaEncryption
                Public-Key: (2048 bit)
                Modulus:
                    00:ac:9c:3e:9d:3b:7a:12:56:85:78:ca:df:9c:fc:
                    0c:7e:5e:f2:4f:22:33:46:81:38:53:d7:a7:25:8f:
                    d7:ee:16:13:e2:67:49:88:f6:94:99:f0:a9:a6:db:
                    fe:7a:17:c9:e3:df:31:73:71:38:70:3a:96:1e:99:
                    7b:5d:07:e3:63:e4:e8:bf:99:f7:3d:5c:27:f5:b7:
                    37:29:da:ee:82:80:00:d4:c8:d3:1b:36:0d:8b:d3:
                    8a:9b:8e:12:a1:4d:0c:c5:22:f8:56:3b:6a:1a:fb:
                    e9:3d:08:1e:13:7f:55:6e:2e:65:93:9a:90:54:03:
                    6d:0d:e6:44:d6:f7:c0:d7:d8:e1:c7:1e:c2:9b:a3:
                    6e:88:f1:7c:58:08:a2:9f:13:cc:5b:b9:11:2c:1d:
                    23:6f:3a:ae:47:9a:0f:6a:ce:e5:80:34:09:e6:e3:
                    fd:76:4a:cf:5a:18:bb:9c:c5:c1:74:49:67:77:1b:
                    ba:28:86:31:a6:fc:12:af:4a:85:1b:73:5b:f4:d6:
                    42:ff:0c:1c:49:e7:31:f2:5a:2a:1e:cd:87:cb:22:
                    ff:70:1c:48:ed:ba:e0:be:f0:bc:9e:e0:dc:59:db:
                    a5:74:25:58:b3:61:04:f6:33:28:6b:07:25:60:0f:
                    72:93:16:6c:9f:b0:ad:4a:18:f7:9e:29:1e:b7:61:
                    34:17
                Exponent: 65537 (0x10001)
        X509v3 extensions:
            X509v3 Basic Constraints: 
                CA:FALSE
            Netscape Comment: 
                nats.io nats-server test-suite certificate
            X509v3 Subject Key Identifier: 
                1F:14:EF:2B:53:AB:28:4A:93:42:98:AE:85:06:0F:B4:7D:DC:36:AE
            X509v3 Authority Key Identifier: 
                keyid:B0:0C:09:95:EA:15:3F:23:8E:EA:BC:4C:80:F6:12:39:3A:56:7B:28
                DirName:/C=US/ST=California/O=Synadia/OU=nats.io/CN=Certificate Authority 2025-08-20
                serial:36:AB:D8:B1:2D:CD:91:24:02:FC:59:ED:15:C5:0B:E6:B0:5F:12:CF
            X509v3 Subject Alternative Name: 
                DNS:localhost, IP Address:127.0.0.1, IP Address:0:0:0:0:0:0:0:1, email:derek@nats.io
            Netscape Cert Type: 
                SSL Client
            X509v3 Key Usage: 
                Digital Signature, Key Encipherment
            X509v3 Extended Key Usage: 
                TLS Web Client Authentication
    Signature Algorithm: sha256WithRSAEncryption
    Signature Value:
        9d:22:66:cb:9b:16:a9:ea:3d:88:18:ae:3f:33:d0:73:4d:e3:
        0b:b0:b6:b8:85:aa:27:35:fa:61:6e:22:0f:ac:bd:bd:12:2e:
        ad:99:32:ab:51:59:f4:5e:77:9b:e1:ea:33:87:a1:be:09:f6:
        65:43:22:c1:2e:a1:5d:0f:96:27:ac:44:ed:56:67:da:83:5c:
        72:fe:4a:49:58:47:2c:12:f8:46:5b:01:7a:13:04:67:06:a5:
        4d:a0:a0:2f:bd:4d:de:e7:04:92:de:16:ef:40:32:02:a8:fb:
        64:31:e4:40:1f:f9:46:b5:fb:58:f3:61:a9:d4:a1:42:ed:d7:
        34:bf:b6:95:3a:55:c9:25:ce:4f:b1:5e:45:8c:3a:09:b3:27:
        2c:25:ee:0b:e3:c9:4b:bd:40:9d:b0:d8:28:fa:06:df:4a:a8:
        e9:de:c4:a8:51:85:37:d6:32:3b:71:f0:68:fb:59:76:e2:f5:
        be:3b:b4:00:e9:82:f1:27:4c:30:21:de:4b:ee:0b:10:7f:bf:
        77:a4:40:09:69:e7:5e:62:e0:35:a6:e4:b7:e1:86:19:b1:34:
        b3:25:73:f2:f7:75:a4:1c:71:90:b7:7d:bd:77:1c:b0:e7:3b:
        4a:f5:fc:16:58:96:2f:f4:9f:0a:6f:9b:50:00:dc:a6:23:08:
        0a:54:01:af
-----BEGIN CERTIFICATE-----
MIIE5zCCA8+gAwIBAgIUZ4nPgKDyaAUdyJ7B9kvWGgt4waowDQYJKoZIhvcNAQEL
BQAwcTELMAkGA1UEBhMCVVMxEzARBgNVBAgMCkNhbGlmb3JuaWExEDAOBgNVBAoM
B1N5bmFkaWExEDAOBgNVBAsMB25hdHMuaW8xKTAnBgNVBAMMIENlcnRpZmljYXRl
IEF1dGhvcml0eSAyMDI1LTA4LTIwMB4XDTI1MDgyMDE4NDIwMVoXDTM1MDgxODE4
NDIwMVowWjELMAkGA1UEBhMCVVMxEzARBgNVBAgMCkNhbGlmb3JuaWExEDAOBgNV
BAoMB1N5bmFkaWExEDAOBgNVBAsMB25hdHMuaW8xEjAQBgNVBAMMCWxvY2FsaG9z
dDCCASIwDQYJKoZIhvcNAQEBBQADggEPADCCAQoCggEBAKycPp07ehJWhXjK35z8
DH5e8k8iM0aBOFPXpyWP1+4WE+JnSYj2lJnwqabb/noXyePfMXNxOHA6lh6Ze10H
42Pk6L+Z9z1cJ/W3Nyna7oKAANTI0xs2DYvTipuOEqFNDMUi+FY7ahr76T0IHhN/
VW4uZZOakFQDbQ3mRNb3wNfY4ccewpujbojxfFgIop8TzFu5ESwdI286rkeaD2rO
5YA0Cebj/XZKz1oYu5zFwXRJZ3cbuiiGMab8Eq9KhRtzW/TWQv8MHEnnMfJaKh7N
h8si/3AcSO264L7wvJ7g3FnbpXQlWLNhBPYzKGsHJWAPcpMWbJ+wrUoY954pHrdh
NBcCAwEAAaOCAYwwggGIMAkGA1UdEwQCMAAwOQYJYIZIAYb4QgENBCwWKm5hdHMu
aW8gbmF0cy1zZXJ2ZXIgdGVzdC1zdWl0ZSBjZXJ0aWZpY2F0ZTAdBgNVHQ4EFgQU
HxTvK1OrKEqTQpiuhQYPtH3cNq4wga4GA1UdIwSBpjCBo4AUsAwJleoVPyOO6rxM
gPYSOTpWeyihdaRzMHExCzAJBgNVBAYTAlVTMRMwEQYDVQQIDApDYWxpZm9ybmlh
MRAwDgYDVQQKDAdTeW5hZGlhMRAwDgYDVQQLDAduYXRzLmlvMSkwJwYDVQQDDCBD
ZXJ0aWZpY2F0ZSBBdXRob3JpdHkgMjAyNS0wOC0yMIIUNqvYsS3NkSQC/FntFcUL
5rBfEs8wOwYDVR0RBDQwMoIJbG9jYWxob3N0hwR/AAABhxAAAAAAAAAAAAAAAAAA
AAABgQ1kZXJla0BuYXRzLmlvMBEGCWCGSAGG+EIBAQQEAwIHgDALBgNVHQ8EBAMC
BaAwEwYDVR0lBAwwCgYIKwYBBQUHAwIwDQYJKoZIhvcNAQELBQADggEBAJ0iZsub
FqnqPYgYrj8z0HNN4wuwtriFqic1+mFuIg+svb0SLq2ZMqtRWfRed5vh6jOHob4J
9mVDIsEuoV0PliesRO1WZ9qDXHL+SklYRywS+EZbAXoTBGcGpU2goC+9Td7nBJLe
Fu9AMgKo+2Qx5EAf+Ua1+1jzYanUoULt1zS/tpU6Vcklzk+xXkWMOgmzJywl7gvj
yUu9QJ2w2Cj6Bt9KqOnexKhRhTfWMjtx8Gj7WXbi9b47tADpgvEnTDAh3kvuCxB/
v3ekQAlp515i4DWm5LfhhhmxNLMlc/L3daQccZC3fb13HLDnO0r1/BZYli/0nwpv
m1AA3KYjCApUAa8=
-----END CERTIFICATE-----
