Certificate:
    Data:
        Version: 3 (0x2)
        Serial Number:
            5e:8e:b9:a5:b6:be:26:2d:03:3b:d4:95:80:c1:9c:d1:06:d1:52:bf
        Signature Algorithm: sha256WithRSAEncryption
        Issuer: C=US, ST=California, O=Synadia, OU=nats.io, CN=Certificate Authority 2025-08-20
        Validity
            Not Before: Aug 20 18:42:01 2025 GMT
            Not After : Aug 18 18:42:01 2035 GMT
        Subject: C=US, ST=California, O=Synadia, OU=nats.io, CN=localhost
        Subject Public Key Info:
            Public Key Algorithm: rsaEncryption
                Public-Key: (2048 bit)
                Modulus:
                    00:ad:f0:87:3f:32:66:87:7a:31:9b:ca:54:0a:ae:
                    a6:1a:ca:25:d5:c5:fc:49:6b:21:0b:de:a7:15:c8:
                    9c:3c:cd:41:1d:32:25:77:68:7b:83:e8:5d:14:7a:
                    2e:0b:ea:41:91:a4:20:ec:20:17:0f:cb:8d:4c:1b:
                    88:a0:d2:77:46:65:7e:d1:a0:e6:4c:4b:c6:8c:39:
                    a1:b3:5b:34:57:c8:a1:10:0c:13:54:3a:74:90:7b:
                    3b:ba:da:41:62:81:f5:dc:b5:73:6c:83:38:f4:a1:
                    52:ab:bd:c2:95:3e:79:ff:af:a4:ae:df:d6:11:d9:
                    29:20:b8:b4:15:e3:32:93:5c:36:ce:56:b4:01:02:
                    a1:45:31:a3:a1:1e:ea:b8:c4:01:04:57:11:44:f4:
                    55:ea:e2:ae:68:08:70:85:c0:5b:ff:ba:bf:de:8b:
                    bc:a1:c6:03:a2:2f:8a:eb:9e:b7:79:3a:67:6a:b0:
                    70:d3:e8:08:a7:12:24:d5:bb:57:88:72:37:c8:e6:
                    2e:db:87:e0:2a:71:1a:2c:90:9c:88:29:0c:75:28:
                    84:d6:7f:75:2d:50:08:36:2b:cf:f3:ba:33:72:1e:
                    7a:07:db:20:da:98:3b:39:86:96:4c:e2:4a:42:61:
                    1a:9b:0b:67:4d:6d:13:d1:9f:40:df:12:c7:8d:9d:
                    50:69
                Exponent: 65537 (0x10001)
        X509v3 extensions:
            X509v3 Basic Constraints: 
                CA:FALSE
            Netscape Comment: 
                nats.io nats-server test-suite certificate
            X509v3 Subject Key Identifier: 
                C9:AA:3C:08:39:7E:C1:42:C0:3D:B7:2F:84:21:E7:8A:30:E7:C7:B1
            X509v3 Authority Key Identifier: 
                keyid:B0:0C:09:95:EA:15:3F:23:8E:EA:BC:4C:80:F6:12:39:3A:56:7B:28
                DirName:/C=US/ST=California/O=Synadia/OU=nats.io/CN=Certificate Authority 2025-08-20
                serial:36:AB:D8:B1:2D:CD:91:24:02:FC:59:ED:15:C5:0B:E6:B0:5F:12:CF
            X509v3 Subject Alternative Name: 
                DNS:localhost
            Netscape Cert Type: 
                SSL Client, SSL Server
            X509v3 Key Usage: 
                Digital Signature, Key Encipherment
            X509v3 Extended Key Usage: 
                TLS Web Server Authentication, Netscape Server Gated Crypto, Microsoft Server Gated Crypto, TLS Web Client Authentication
    Signature Algorithm: sha256WithRSAEncryption
    Signature Value:
        61:19:52:7a:4f:79:dc:34:a7:71:32:a7:33:eb:65:ea:6d:4e:
        94:fc:61:de:e6:9f:07:99:52:e7:d6:0e:b1:f5:31:0e:38:dc:
        f5:cd:ca:5e:ae:f4:a6:37:ce:ed:7f:36:57:8f:c1:96:e0:96:
        43:b6:b5:87:e4:d2:79:d7:57:3b:55:0d:11:83:a0:86:4b:f7:
        d3:12:e5:08:e3:2f:81:83:b0:3f:ba:ad:bc:27:db:41:f5:54:
        03:7e:09:a2:a2:0b:77:7d:cb:b7:95:9f:d8:44:02:d1:4b:d7:
        87:f8:54:12:f0:7f:be:c0:ce:74:fa:95:69:4e:8c:d7:e6:b1:
        5e:02:e1:58:61:11:16:80:62:8a:b2:24:c1:1f:31:89:7e:58:
        72:43:41:c5:7f:e6:54:3b:ad:5a:95:38:9c:25:05:ee:6a:98:
        c1:f1:fd:17:17:a7:81:22:a3:50:63:29:05:08:2a:a5:09:af:
        f1:78:66:0b:dd:55:49:21:a7:ec:e2:89:39:7f:50:16:10:7b:
        ac:8d:7d:82:92:9c:ef:66:d0:92:a0:64:ec:19:66:04:ed:46:
        9f:69:a2:0e:71:0c:11:7e:80:48:e2:2d:8c:54:de:b8:e8:a6:
        d9:db:1e:73:07:1b:c6:6b:fc:d2:25:30:94:8d:5d:61:d8:96:
        bf:95:df:a9
-----BEGIN CERTIFICATE-----
MIIE4TCCA8mgAwIBAgIUXo65pba+Ji0DO9SVgMGc0QbRUr8wDQYJKoZIhvcNAQEL
BQAwcTELMAkGA1UEBhMCVVMxEzARBgNVBAgMCkNhbGlmb3JuaWExEDAOBgNVBAoM
B1N5bmFkaWExEDAOBgNVBAsMB25hdHMuaW8xKTAnBgNVBAMMIENlcnRpZmljYXRl
IEF1dGhvcml0eSAyMDI1LTA4LTIwMB4XDTI1MDgyMDE4NDIwMVoXDTM1MDgxODE4
NDIwMVowWjELMAkGA1UEBhMCVVMxEzARBgNVBAgMCkNhbGlmb3JuaWExEDAOBgNV
BAoMB1N5bmFkaWExEDAOBgNVBAsMB25hdHMuaW8xEjAQBgNVBAMMCWxvY2FsaG9z
dDCCASIwDQYJKoZIhvcNAQEBBQADggEPADCCAQoCggEBAK3whz8yZod6MZvKVAqu
phrKJdXF/ElrIQvepxXInDzNQR0yJXdoe4PoXRR6LgvqQZGkIOwgFw/LjUwbiKDS
d0ZlftGg5kxLxow5obNbNFfIoRAME1Q6dJB7O7raQWKB9dy1c2yDOPShUqu9wpU+
ef+vpK7f1hHZKSC4tBXjMpNcNs5WtAECoUUxo6Ee6rjEAQRXEUT0VerirmgIcIXA
W/+6v96LvKHGA6Iviuuet3k6Z2qwcNPoCKcSJNW7V4hyN8jmLtuH4CpxGiyQnIgp
DHUohNZ/dS1QCDYrz/O6M3IeegfbINqYOzmGlkziSkJhGpsLZ01tE9GfQN8Sx42d
UGkCAwEAAaOCAYYwggGCMAkGA1UdEwQCMAAwOQYJYIZIAYb4QgENBCwWKm5hdHMu
aW8gbmF0cy1zZXJ2ZXIgdGVzdC1zdWl0ZSBjZXJ0aWZpY2F0ZTAdBgNVHQ4EFgQU
yao8CDl+wULAPbcvhCHnijDnx7Ewga4GA1UdIwSBpjCBo4AUsAwJleoVPyOO6rxM
gPYSOTpWeyihdaRzMHExCzAJBgNVBAYTAlVTMRMwEQYDVQQIDApDYWxpZm9ybmlh
MRAwDgYDVQQKDAdTeW5hZGlhMRAwDgYDVQQLDAduYXRzLmlvMSkwJwYDVQQDDCBD
ZXJ0aWZpY2F0ZSBBdXRob3JpdHkgMjAyNS0wOC0yMIIUNqvYsS3NkSQC/FntFcUL
5rBfEs8wFAYDVR0RBA0wC4IJbG9jYWxob3N0MBEGCWCGSAGG+EIBAQQEAwIGwDAL
BgNVHQ8EBAMCBaAwNAYDVR0lBC0wKwYIKwYBBQUHAwEGCWCGSAGG+EIEAQYKKwYB
BAGCNwoDAwYIKwYBBQUHAwIwDQYJKoZIhvcNAQELBQADggEBAGEZUnpPedw0p3Ey
pzPrZeptTpT8Yd7mnweZUufWDrH1MQ443PXNyl6u9KY3zu1/NlePwZbglkO2tYfk
0nnXVztVDRGDoIZL99MS5QjjL4GDsD+6rbwn20H1VAN+CaKiC3d9y7eVn9hEAtFL
14f4VBLwf77AznT6lWlOjNfmsV4C4VhhERaAYoqyJMEfMYl+WHJDQcV/5lQ7rVqV
OJwlBe5qmMHx/RcXp4Eio1BjKQUIKqUJr/F4ZgvdVUkhp+ziiTl/UBYQe6yNfYKS
nO9m0JKgZOwZZgTtRp9pog5xDBF+gEjiLYxU3rjoptnbHnMHG8Zr/NIlMJSNXWHY
lr+V36k=
-----END CERTIFICATE-----
