Certificate:
    Data:
        Version: 3 (0x2)
        Serial Number:
            79:da:3d:f0:f2:a4:97:bc:88:c6:f2:c0:67:64:13:3f:79:a2:70:b6
        Signature Algorithm: sha256WithRSAEncryption
        Issuer: C=US, ST=California, O=Synadia, OU=nats.io, CN=Certificate Authority 2025-08-20
        Validity
            Not Before: Aug 20 18:42:01 2025 GMT
            Not After : Aug 18 18:42:01 2035 GMT
        Subject: C=US, ST=California, O=Synadia, OU=nats.io, CN=localhost
        Subject Public Key Info:
            Public Key Algorithm: rsaEncryption
                Public-Key: (2048 bit)
                Modulus:
                    00:e6:fb:47:65:cd:c9:a2:2d:af:8b:cd:d5:6a:79:
                    54:3c:07:5f:eb:5a:71:2b:2b:e5:6f:be:31:fb:16:
                    65:68:76:0e:59:e7:e4:57:ca:88:e9:77:d6:41:ad:
                    57:7a:42:b2:d2:54:c4:0f:7c:5b:c1:bc:61:97:e3:
                    22:3a:3e:1e:4a:5d:47:9f:6b:7d:6f:34:e3:8c:86:
                    9d:85:19:29:9a:11:58:44:4c:a1:90:d3:14:61:e1:
                    57:da:01:ea:ce:3f:90:ae:9e:5d:13:6d:2c:89:ca:
                    39:15:6b:b6:9e:32:d7:2a:4c:48:85:2f:b0:1e:d8:
                    4b:62:32:14:eb:32:b6:29:04:34:3c:af:39:b6:8b:
                    52:32:4d:bf:43:5f:9b:fb:0d:43:a6:ad:2c:a7:41:
                    29:55:c9:70:b3:b5:15:46:34:bf:e4:1e:52:2d:a4:
                    49:2e:d5:21:ed:fc:00:f7:a2:0b:bc:12:0a:90:64:
                    50:7c:c5:14:70:f5:fb:9b:62:08:78:43:49:31:f3:
                    47:b8:93:d4:2d:4c:a9:dc:17:70:76:34:66:ff:65:
                    c1:39:67:e9:a6:1c:80:6a:f0:9d:b3:28:c8:a3:3a:
                    b7:5d:de:6e:53:6d:09:b3:0d:b1:13:10:e8:ec:e0:
                    bd:5e:a1:94:4b:70:bf:dc:bd:8b:b9:82:65:dd:af:
                    81:7b
                Exponent: 65537 (0x10001)
        X509v3 extensions:
            X509v3 Basic Constraints: 
                CA:FALSE
            Netscape Comment: 
                nats.io nats-server test-suite certificate
            X509v3 Subject Key Identifier: 
                2B:8C:A3:8B:DB:DB:5C:CE:18:DB:F6:A8:31:4E:C2:3E:EE:D3:40:7E
            X509v3 Authority Key Identifier: 
                keyid:B0:0C:09:95:EA:15:3F:23:8E:EA:BC:4C:80:F6:12:39:3A:56:7B:28
                DirName:/C=US/ST=California/O=Synadia/OU=nats.io/CN=Certificate Authority 2025-08-20
                serial:36:AB:D8:B1:2D:CD:91:24:02:FC:59:ED:15:C5:0B:E6:B0:5F:12:CF
            X509v3 Subject Alternative Name: 
                DNS:localhost, IP Address:127.0.0.1, IP Address:0:0:0:0:0:0:0:1
            Netscape Cert Type: 
                SSL Client, SSL Server
            X509v3 Key Usage: 
                Digital Signature, Key Encipherment
            X509v3 Extended Key Usage: 
                TLS Web Server Authentication, Netscape Server Gated Crypto, Microsoft Server Gated Crypto, TLS Web Client Authentication
    Signature Algorithm: sha256WithRSAEncryption
    Signature Value:
        54:78:60:c4:89:e4:15:17:3c:41:e0:f0:b8:96:18:92:c8:b4:
        cd:bd:52:bb:e4:91:04:5e:a2:9a:d5:5d:68:d2:08:36:70:02:
        ca:20:21:77:96:27:71:ee:ce:cb:04:53:10:4d:30:3d:f5:91:
        6c:f4:a2:68:0e:40:6d:1f:96:41:db:bc:a9:71:a1:ef:1f:09:
        4b:03:a1:d8:f9:2a:54:43:3e:1f:13:0b:82:e6:4d:52:09:95:
        9a:31:34:f5:21:1e:71:5a:10:7e:33:f4:5a:bd:b8:17:eb:31:
        e7:90:bd:6e:eb:09:ee:ad:b0:fb:3c:c1:c1:53:4d:0c:4d:ff:
        03:a6:2c:e1:84:b9:41:17:3a:db:af:56:73:4e:33:55:8b:3e:
        01:99:44:fa:f3:8c:78:4c:30:8d:07:b6:51:a1:16:21:b7:89:
        cd:7e:ec:2a:9c:db:08:16:14:4f:1d:b0:5c:f2:1b:be:7b:c6:
        55:f8:24:a2:a6:d7:a7:5c:2a:b3:14:40:14:c8:04:11:e1:e4:
        d8:99:f7:a7:f1:6e:be:ec:84:b3:be:02:be:da:e0:9f:0c:19:
        60:59:0b:b4:57:11:7d:b3:11:f2:23:cf:54:97:e8:4f:68:3e:
        71:1a:4d:99:05:81:7f:c7:7c:76:18:f5:82:6f:a0:bf:5e:dc:
        6d:07:8b:57
-----BEGIN CERTIFICATE-----
MIIE+TCCA+GgAwIBAgIUedo98PKkl7yIxvLAZ2QTP3micLYwDQYJKoZIhvcNAQEL
BQAwcTELMAkGA1UEBhMCVVMxEzARBgNVBAgMCkNhbGlmb3JuaWExEDAOBgNVBAoM
B1N5bmFkaWExEDAOBgNVBAsMB25hdHMuaW8xKTAnBgNVBAMMIENlcnRpZmljYXRl
IEF1dGhvcml0eSAyMDI1LTA4LTIwMB4XDTI1MDgyMDE4NDIwMVoXDTM1MDgxODE4
NDIwMVowWjELMAkGA1UEBhMCVVMxEzARBgNVBAgMCkNhbGlmb3JuaWExEDAOBgNV
BAoMB1N5bmFkaWExEDAOBgNVBAsMB25hdHMuaW8xEjAQBgNVBAMMCWxvY2FsaG9z
dDCCASIwDQYJKoZIhvcNAQEBBQADggEPADCCAQoCggEBAOb7R2XNyaItr4vN1Wp5
VDwHX+tacSsr5W++MfsWZWh2Dlnn5FfKiOl31kGtV3pCstJUxA98W8G8YZfjIjo+
HkpdR59rfW8044yGnYUZKZoRWERMoZDTFGHhV9oB6s4/kK6eXRNtLInKORVrtp4y
1ypMSIUvsB7YS2IyFOsytikENDyvObaLUjJNv0Nfm/sNQ6atLKdBKVXJcLO1FUY0
v+QeUi2kSS7VIe38APeiC7wSCpBkUHzFFHD1+5tiCHhDSTHzR7iT1C1MqdwXcHY0
Zv9lwTln6aYcgGrwnbMoyKM6t13eblNtCbMNsRMQ6OzgvV6hlEtwv9y9i7mCZd2v
gXsCAwEAAaOCAZ4wggGaMAkGA1UdEwQCMAAwOQYJYIZIAYb4QgENBCwWKm5hdHMu
aW8gbmF0cy1zZXJ2ZXIgdGVzdC1zdWl0ZSBjZXJ0aWZpY2F0ZTAdBgNVHQ4EFgQU
K4yji9vbXM4Y2/aoMU7CPu7TQH4wga4GA1UdIwSBpjCBo4AUsAwJleoVPyOO6rxM
gPYSOTpWeyihdaRzMHExCzAJBgNVBAYTAlVTMRMwEQYDVQQIDApDYWxpZm9ybmlh
MRAwDgYDVQQKDAdTeW5hZGlhMRAwDgYDVQQLDAduYXRzLmlvMSkwJwYDVQQDDCBD
ZXJ0aWZpY2F0ZSBBdXRob3JpdHkgMjAyNS0wOC0yMIIUNqvYsS3NkSQC/FntFcUL
5rBfEs8wLAYDVR0RBCUwI4IJbG9jYWxob3N0hwR/AAABhxAAAAAAAAAAAAAAAAAA
AAABMBEGCWCGSAGG+EIBAQQEAwIGwDALBgNVHQ8EBAMCBaAwNAYDVR0lBC0wKwYI
KwYBBQUHAwEGCWCGSAGG+EIEAQYKKwYBBAGCNwoDAwYIKwYBBQUHAwIwDQYJKoZI
hvcNAQELBQADggEBAFR4YMSJ5BUXPEHg8LiWGJLItM29UrvkkQReoprVXWjSCDZw
AsogIXeWJ3HuzssEUxBNMD31kWz0omgOQG0flkHbvKlxoe8fCUsDodj5KlRDPh8T
C4LmTVIJlZoxNPUhHnFaEH4z9Fq9uBfrMeeQvW7rCe6tsPs8wcFTTQxN/wOmLOGE
uUEXOtuvVnNOM1WLPgGZRPrzjHhMMI0HtlGhFiG3ic1+7Cqc2wgWFE8dsFzyG757
xlX4JKKm16dcKrMUQBTIBBHh5NiZ96fxbr7shLO+Ar7a4J8MGWBZC7RXEX2zEfIj
z1SX6E9oPnEaTZkFgX/HfHYY9YJvoL9e3G0Hi1c=
-----END CERTIFICATE-----
